target datalayout = "e-m:e-p270:32:32-p271:32:32-p272:64:64-i64:64-i128:128-f80:128-n8:16:32:64-S128"
target triple = "x86_64-unknown-linux-gnu"

%"class.Assimp::BlenderBMeshConverter" = type { ptr, ptr }
%"struct.Assimp::Blender::Mesh" = type { %"struct.Assimp::Blender::ElemBase", %"struct.Assimp::Blender::ID", i32, i32, i32, i32, i32, i16, i16, i16, i16, %"class.Assimp::Blender::vector", %"class.Assimp::Blender::vector.0", %"class.Assimp::Blender::vector.6", %"class.Assimp::Blender::vector.12", %"class.Assimp::Blender::vector.18", %"class.Assimp::Blender::vector.24", %"class.Assimp::Blender::vector.30", %"class.Assimp::Blender::vector.36", %"class.Assimp::Blender::vector.42", %"class.Assimp::Blender::vector.48", %"class.Assimp::Blender::vector.54", %"class.Assimp::Blender::vector.60", %"class.Assimp::Blender::vector.66", %"struct.Assimp::Blender::CustomData", %"struct.Assimp::Blender::CustomData", %"struct.Assimp::Blender::CustomData", %"struct.Assimp::Blender::CustomData", %"struct.Assimp::Blender::CustomData" }
%"struct.Assimp::Blender::ElemBase" = type { ptr, ptr }
%"struct.Assimp::Blender::ID" = type <{ %"struct.Assimp::Blender::ElemBase", [1024 x i8], i16, [6 x i8] }>
%"class.Assimp::Blender::vector" = type { %"class.std::vector" }
%"class.std::vector" = type { %"struct.std::_Vector_base" }
%"struct.std::_Vector_base" = type { %"struct.std::_Vector_base<Assimp::Blender::MFace, std::allocator<Assimp::Blender::MFace>>::_Vector_impl" }
%"struct.std::_Vector_base<Assimp::Blender::MFace, std::allocator<Assimp::Blender::MFace>>::_Vector_impl" = type { %"struct.std::_Vector_base<Assimp::Blender::MFace, std::allocator<Assimp::Blender::MFace>>::_Vector_impl_data" }
%"struct.std::_Vector_base<Assimp::Blender::MFace, std::allocator<Assimp::Blender::MFace>>::_Vector_impl_data" = type { ptr, ptr, ptr }
%"class.Assimp::Blender::vector.0" = type { %"class.std::vector.1" }
%"class.std::vector.1" = type { %"struct.std::_Vector_base.2" }
%"struct.std::_Vector_base.2" = type { %"struct.std::_Vector_base<Assimp::Blender::MTFace, std::allocator<Assimp::Blender::MTFace>>::_Vector_impl" }
%"struct.std::_Vector_base<Assimp::Blender::MTFace, std::allocator<Assimp::Blender::MTFace>>::_Vector_impl" = type { %"struct.std::_Vector_base<Assimp::Blender::MTFace, std::allocator<Assimp::Blender::MTFace>>::_Vector_impl_data" }
%"struct.std::_Vector_base<Assimp::Blender::MTFace, std::allocator<Assimp::Blender::MTFace>>::_Vector_impl_data" = type { ptr, ptr, ptr }
%"class.Assimp::Blender::vector.6" = type { %"class.std::vector.7" }
%"class.std::vector.7" = type { %"struct.std::_Vector_base.8" }
%"struct.std::_Vector_base.8" = type { %"struct.std::_Vector_base<Assimp::Blender::TFace, std::allocator<Assimp::Blender::TFace>>::_Vector_impl" }
%"struct.std::_Vector_base<Assimp::Blender::TFace, std::allocator<Assimp::Blender::TFace>>::_Vector_impl" = type { %"struct.std::_Vector_base<Assimp::Blender::TFace, std::allocator<Assimp::Blender::TFace>>::_Vector_impl_data" }
%"struct.std::_Vector_base<Assimp::Blender::TFace, std::allocator<Assimp::Blender::TFace>>::_Vector_impl_data" = type { ptr, ptr, ptr }
%"class.Assimp::Blender::vector.12" = type { %"class.std::vector.13" }
%"class.std::vector.13" = type { %"struct.std::_Vector_base.14" }
%"struct.std::_Vector_base.14" = type { %"struct.std::_Vector_base<Assimp::Blender::MVert, std::allocator<Assimp::Blender::MVert>>::_Vector_impl" }
%"struct.std::_Vector_base<Assimp::Blender::MVert, std::allocator<Assimp::Blender::MVert>>::_Vector_impl" = type { %"struct.std::_Vector_base<Assimp::Blender::MVert, std::allocator<Assimp::Blender::MVert>>::_Vector_impl_data" }
%"struct.std::_Vector_base<Assimp::Blender::MVert, std::allocator<Assimp::Blender::MVert>>::_Vector_impl_data" = type { ptr, ptr, ptr }
%"class.Assimp::Blender::vector.18" = type { %"class.std::vector.19" }
%"class.std::vector.19" = type { %"struct.std::_Vector_base.20" }
%"struct.std::_Vector_base.20" = type { %"struct.std::_Vector_base<Assimp::Blender::MEdge, std::allocator<Assimp::Blender::MEdge>>::_Vector_impl" }
%"struct.std::_Vector_base<Assimp::Blender::MEdge, std::allocator<Assimp::Blender::MEdge>>::_Vector_impl" = type { %"struct.std::_Vector_base<Assimp::Blender::MEdge, std::allocator<Assimp::Blender::MEdge>>::_Vector_impl_data" }
%"struct.std::_Vector_base<Assimp::Blender::MEdge, std::allocator<Assimp::Blender::MEdge>>::_Vector_impl_data" = type { ptr, ptr, ptr }
%"class.Assimp::Blender::vector.24" = type { %"class.std::vector.25" }
%"class.std::vector.25" = type { %"struct.std::_Vector_base.26" }
%"struct.std::_Vector_base.26" = type { %"struct.std::_Vector_base<Assimp::Blender::MLoop, std::allocator<Assimp::Blender::MLoop>>::_Vector_impl" }
%"struct.std::_Vector_base<Assimp::Blender::MLoop, std::allocator<Assimp::Blender::MLoop>>::_Vector_impl" = type { %"struct.std::_Vector_base<Assimp::Blender::MLoop, std::allocator<Assimp::Blender::MLoop>>::_Vector_impl_data" }
%"struct.std::_Vector_base<Assimp::Blender::MLoop, std::allocator<Assimp::Blender::MLoop>>::_Vector_impl_data" = type { ptr, ptr, ptr }
%"class.Assimp::Blender::vector.30" = type { %"class.std::vector.31" }
%"class.std::vector.31" = type { %"struct.std::_Vector_base.32" }
%"struct.std::_Vector_base.32" = type { %"struct.std::_Vector_base<Assimp::Blender::MLoopUV, std::allocator<Assimp::Blender::MLoopUV>>::_Vector_impl" }
%"struct.std::_Vector_base<Assimp::Blender::MLoopUV, std::allocator<Assimp::Blender::MLoopUV>>::_Vector_impl" = type { %"struct.std::_Vector_base<Assimp::Blender::MLoopUV, std::allocator<Assimp::Blender::MLoopUV>>::_Vector_impl_data" }
%"struct.std::_Vector_base<Assimp::Blender::MLoopUV, std::allocator<Assimp::Blender::MLoopUV>>::_Vector_impl_data" = type { ptr, ptr, ptr }
%"class.Assimp::Blender::vector.36" = type { %"class.std::vector.37" }
%"class.std::vector.37" = type { %"struct.std::_Vector_base.38" }
%"struct.std::_Vector_base.38" = type { %"struct.std::_Vector_base<Assimp::Blender::MLoopCol, std::allocator<Assimp::Blender::MLoopCol>>::_Vector_impl" }
%"struct.std::_Vector_base<Assimp::Blender::MLoopCol, std::allocator<Assimp::Blender::MLoopCol>>::_Vector_impl" = type { %"struct.std::_Vector_base<Assimp::Blender::MLoopCol, std::allocator<Assimp::Blender::MLoopCol>>::_Vector_impl_data" }
%"struct.std::_Vector_base<Assimp::Blender::MLoopCol, std::allocator<Assimp::Blender::MLoopCol>>::_Vector_impl_data" = type { ptr, ptr, ptr }
%"class.Assimp::Blender::vector.42" = type { %"class.std::vector.43" }
%"class.std::vector.43" = type { %"struct.std::_Vector_base.44" }
%"struct.std::_Vector_base.44" = type { %"struct.std::_Vector_base<Assimp::Blender::MPoly, std::allocator<Assimp::Blender::MPoly>>::_Vector_impl" }
%"struct.std::_Vector_base<Assimp::Blender::MPoly, std::allocator<Assimp::Blender::MPoly>>::_Vector_impl" = type { %"struct.std::_Vector_base<Assimp::Blender::MPoly, std::allocator<Assimp::Blender::MPoly>>::_Vector_impl_data" }
%"struct.std::_Vector_base<Assimp::Blender::MPoly, std::allocator<Assimp::Blender::MPoly>>::_Vector_impl_data" = type { ptr, ptr, ptr }
%"class.Assimp::Blender::vector.48" = type { %"class.std::vector.49" }
%"class.std::vector.49" = type { %"struct.std::_Vector_base.50" }
%"struct.std::_Vector_base.50" = type { %"struct.std::_Vector_base<Assimp::Blender::MTexPoly, std::allocator<Assimp::Blender::MTexPoly>>::_Vector_impl" }
%"struct.std::_Vector_base<Assimp::Blender::MTexPoly, std::allocator<Assimp::Blender::MTexPoly>>::_Vector_impl" = type { %"struct.std::_Vector_base<Assimp::Blender::MTexPoly, std::allocator<Assimp::Blender::MTexPoly>>::_Vector_impl_data" }
%"struct.std::_Vector_base<Assimp::Blender::MTexPoly, std::allocator<Assimp::Blender::MTexPoly>>::_Vector_impl_data" = type { ptr, ptr, ptr }
%"class.Assimp::Blender::vector.54" = type { %"class.std::vector.55" }
%"class.std::vector.55" = type { %"struct.std::_Vector_base.56" }
%"struct.std::_Vector_base.56" = type { %"struct.std::_Vector_base<Assimp::Blender::MDeformVert, std::allocator<Assimp::Blender::MDeformVert>>::_Vector_impl" }
%"struct.std::_Vector_base<Assimp::Blender::MDeformVert, std::allocator<Assimp::Blender::MDeformVert>>::_Vector_impl" = type { %"struct.std::_Vector_base<Assimp::Blender::MDeformVert, std::allocator<Assimp::Blender::MDeformVert>>::_Vector_impl_data" }
%"struct.std::_Vector_base<Assimp::Blender::MDeformVert, std::allocator<Assimp::Blender::MDeformVert>>::_Vector_impl_data" = type { ptr, ptr, ptr }
%"class.Assimp::Blender::vector.60" = type { %"class.std::vector.61" }
%"class.std::vector.61" = type { %"struct.std::_Vector_base.62" }
%"struct.std::_Vector_base.62" = type { %"struct.std::_Vector_base<Assimp::Blender::MCol, std::allocator<Assimp::Blender::MCol>>::_Vector_impl" }
%"struct.std::_Vector_base<Assimp::Blender::MCol, std::allocator<Assimp::Blender::MCol>>::_Vector_impl" = type { %"struct.std::_Vector_base<Assimp::Blender::MCol, std::allocator<Assimp::Blender::MCol>>::_Vector_impl_data" }
%"struct.std::_Vector_base<Assimp::Blender::MCol, std::allocator<Assimp::Blender::MCol>>::_Vector_impl_data" = type { ptr, ptr, ptr }
%"class.Assimp::Blender::vector.66" = type { %"class.std::vector.67" }
%"class.std::vector.67" = type { %"struct.std::_Vector_base.68" }
%"struct.std::_Vector_base.68" = type { %"struct.std::_Vector_base<std::shared_ptr<Assimp::Blender::Material>, std::allocator<std::shared_ptr<Assimp::Blender::Material>>>::_Vector_impl" }
%"struct.std::_Vector_base<std::shared_ptr<Assimp::Blender::Material>, std::allocator<std::shared_ptr<Assimp::Blender::Material>>>::_Vector_impl" = type { %"struct.std::_Vector_base<std::shared_ptr<Assimp::Blender::Material>, std::allocator<std::shared_ptr<Assimp::Blender::Material>>>::_Vector_impl_data" }
%"struct.std::_Vector_base<std::shared_ptr<Assimp::Blender::Material>, std::allocator<std::shared_ptr<Assimp::Blender::Material>>>::_Vector_impl_data" = type { ptr, ptr, ptr }
%"struct.Assimp::Blender::CustomData" = type <{ %"struct.Assimp::Blender::ElemBase", %"class.Assimp::Blender::vector.72", [42 x i32], i32, i32, i32, [4 x i8] }>
%"class.Assimp::Blender::vector.72" = type { %"class.std::vector.73" }
%"class.std::vector.73" = type { %"struct.std::_Vector_base.74" }
%"struct.std::_Vector_base.74" = type { %"struct.std::_Vector_base<std::shared_ptr<Assimp::Blender::CustomDataLayer>, std::allocator<std::shared_ptr<Assimp::Blender::CustomDataLayer>>>::_Vector_impl" }
%"struct.std::_Vector_base<std::shared_ptr<Assimp::Blender::CustomDataLayer>, std::allocator<std::shared_ptr<Assimp::Blender::CustomDataLayer>>>::_Vector_impl" = type { %"struct.std::_Vector_base<std::shared_ptr<Assimp::Blender::CustomDataLayer>, std::allocator<std::shared_ptr<Assimp::Blender::CustomDataLayer>>>::_Vector_impl_data" }
%"struct.std::_Vector_base<std::shared_ptr<Assimp::Blender::CustomDataLayer>, std::allocator<std::shared_ptr<Assimp::Blender::CustomDataLayer>>>::_Vector_impl_data" = type { ptr, ptr, ptr }
%"struct.Assimp::Blender::MFace" = type <{ %"struct.Assimp::Blender::ElemBase", i32, i32, i32, i32, i32, i8, [3 x i8] }>

; Function Attrs: mustprogress nounwind uwtable
define linkonce_odr hidden void @_ZSt8_DestroyIN6Assimp7Blender5MFaceEEvPT_(ptr noundef %__pointer) #0 comdat {
entry:
  %__pointer.addr = alloca ptr, align 8
  store ptr %__pointer, ptr %__pointer.addr, align 8
  %0 = load ptr, ptr %__pointer.addr, align 8
  %vtable = load ptr, ptr %0, align 8
  %vfn = getelementptr inbounds ptr, ptr %vtable, i64 0
  %1 = load ptr, ptr %vfn, align 8
  call void %1(ptr noundef nonnull align 8 dereferenceable(37) %0) #11
  ret void
}

; Function Attrs: mustprogress uwtable
define linkonce_odr hidden void @_ZNSt12_Destroy_auxILb0EE9__destroyIPN6Assimp7Blender5MFaceEEEvT_S6_(ptr noundef %__first, ptr noundef %__last) #3 comdat align 2 {
entry:
  %__first.addr = alloca ptr, align 8
  %__last.addr = alloca ptr, align 8
  store ptr %__first, ptr %__first.addr, align 8
  store ptr %__last, ptr %__last.addr, align 8
  br label %for.cond

for.cond:                                         ; preds = %for.inc, %entry
  %0 = load ptr, ptr %__first.addr, align 8
  %1 = load ptr, ptr %__last.addr, align 8
  %cmp = icmp ne ptr %0, %1
  br i1 %cmp, label %for.body, label %for.end

for.body:                                         ; preds = %for.cond
  %2 = load ptr, ptr %__first.addr, align 8
  call void @_ZSt8_DestroyIN6Assimp7Blender5MFaceEEvPT_(ptr noundef %2)
  br label %for.inc

for.inc:                                          ; preds = %for.body
  %3 = load ptr, ptr %__first.addr, align 8
  %incdec.ptr = getelementptr inbounds %"struct.Assimp::Blender::MFace", ptr %3, i32 1
  store ptr %incdec.ptr, ptr %__first.addr, align 8
  br label %for.cond, !llvm.loop !7

for.end:                                          ; preds = %for.cond
  ret void
}

; Function Attrs: mustprogress uwtable
define linkonce_odr hidden void @_ZSt8_DestroyIPN6Assimp7Blender5MFaceEEvT_S4_(ptr noundef %__first, ptr noundef %__last) #3 comdat {
entry:
  %__first.addr = alloca ptr, align 8
  %__last.addr = alloca ptr, align 8
  store ptr %__first, ptr %__first.addr, align 8
  store ptr %__last, ptr %__last.addr, align 8
  %0 = load ptr, ptr %__first.addr, align 8
  %1 = load ptr, ptr %__last.addr, align 8
  call void @_ZNSt12_Destroy_auxILb0EE9__destroyIPN6Assimp7Blender5MFaceEEEvT_S6_(ptr noundef %0, ptr noundef %1)
  ret void
}

; Function Attrs: noreturn nounwind uwtable
define linkonce_odr hidden void @__clang_call_terminate(ptr noundef %0) #2 comdat {
  %2 = call ptr @__cxa_begin_catch(ptr %0) #11
  call void @_ZSt9terminatev() #10
  unreachable
}

; Function Attrs: mustprogress uwtable
define linkonce_odr hidden void @_ZSt8_DestroyIPN6Assimp7Blender5MFaceES2_EvT_S4_RSaIT0_E(ptr noundef %__first, ptr noundef %__last, ptr noundef nonnull align 1 dereferenceable(1) %0) #3 comdat {
entry:
  %__first.addr = alloca ptr, align 8
  %__last.addr = alloca ptr, align 8
  %.addr = alloca ptr, align 8
  store ptr %__first, ptr %__first.addr, align 8
  store ptr %__last, ptr %__last.addr, align 8
  store ptr %0, ptr %.addr, align 8
  %1 = load ptr, ptr %__first.addr, align 8
  %2 = load ptr, ptr %__last.addr, align 8
  call void @_ZSt8_DestroyIPN6Assimp7Blender5MFaceEEvT_S4_(ptr noundef %1, ptr noundef %2)
  ret void
}

; Function Attrs: mustprogress nounwind uwtable
define linkonce_odr hidden noundef nonnull align 1 dereferenceable(1) ptr @_ZNSt12_Vector_baseIN6Assimp7Blender5MFaceESaIS2_EE19_M_get_Tp_allocatorEv(ptr noundef nonnull align 8 dereferenceable(24) %this) #0 comdat align 2 {
entry:
  %this.addr = alloca ptr, align 8
  store ptr %this, ptr %this.addr, align 8
  %this1 = load ptr, ptr %this.addr, align 8
  %_M_impl = getelementptr inbounds %"struct.std::_Vector_base", ptr %this1, i32 0, i32 0
  ret ptr %_M_impl
}

; Function Attrs: mustprogress nounwind uwtable
define linkonce_odr hidden void @_ZNSt6vectorIN6Assimp7Blender5MFaceESaIS2_EE15_M_erase_at_endEPS2_(ptr noundef nonnull align 8 dereferenceable(24) %this, ptr noundef %__pos) #0 comdat align 2 personality ptr @__gxx_personality_v0 {
entry:
  %this.addr = alloca ptr, align 8
  %__pos.addr = alloca ptr, align 8
  %__n = alloca i64, align 8
  store ptr %this, ptr %this.addr, align 8
  store ptr %__pos, ptr %__pos.addr, align 8
  %this1 = load ptr, ptr %this.addr, align 8
  %_M_impl = getelementptr inbounds %"struct.std::_Vector_base", ptr %this1, i32 0, i32 0
  %_M_finish = getelementptr inbounds %"struct.std::_Vector_base<Assimp::Blender::MFace, std::allocator<Assimp::Blender::MFace>>::_Vector_impl_data", ptr %_M_impl, i32 0, i32 1
  %0 = load ptr, ptr %_M_finish, align 8
  %1 = load ptr, ptr %__pos.addr, align 8
  %sub.ptr.lhs.cast = ptrtoint ptr %0 to i64
  %sub.ptr.rhs.cast = ptrtoint ptr %1 to i64
  %sub.ptr.sub = sub i64 %sub.ptr.lhs.cast, %sub.ptr.rhs.cast
  %sub.ptr.div = sdiv exact i64 %sub.ptr.sub, 40
  store i64 %sub.ptr.div, ptr %__n, align 8
  %2 = load i64, ptr %__n, align 8
  %tobool = icmp ne i64 %2, 0
  br i1 %tobool, label %if.then, label %if.end

if.then:                                          ; preds = %entry
  %3 = load ptr, ptr %__pos.addr, align 8
  %_M_impl2 = getelementptr inbounds %"struct.std::_Vector_base", ptr %this1, i32 0, i32 0
  %_M_finish3 = getelementptr inbounds %"struct.std::_Vector_base<Assimp::Blender::MFace, std::allocator<Assimp::Blender::MFace>>::_Vector_impl_data", ptr %_M_impl2, i32 0, i32 1
  %4 = load ptr, ptr %_M_finish3, align 8
  %call = call noundef nonnull align 1 dereferenceable(1) ptr @_ZNSt12_Vector_baseIN6Assimp7Blender5MFaceESaIS2_EE19_M_get_Tp_allocatorEv(ptr noundef nonnull align 8 dereferenceable(24) %this1) #11
  invoke void @_ZSt8_DestroyIPN6Assimp7Blender5MFaceES2_EvT_S4_RSaIT0_E(ptr noundef %3, ptr noundef %4, ptr noundef nonnull align 1 dereferenceable(1) %call)
          to label %invoke.cont unwind label %terminate.lpad

invoke.cont:                                      ; preds = %if.then
  %5 = load ptr, ptr %__pos.addr, align 8
  %_M_impl4 = getelementptr inbounds %"struct.std::_Vector_base", ptr %this1, i32 0, i32 0
  %_M_finish5 = getelementptr inbounds %"struct.std::_Vector_base<Assimp::Blender::MFace, std::allocator<Assimp::Blender::MFace>>::_Vector_impl_data", ptr %_M_impl4, i32 0, i32 1
  store ptr %5, ptr %_M_finish5, align 8
  br label %if.end

if.end:                                           ; preds = %invoke.cont, %entry
  ret void

terminate.lpad:                                   ; preds = %if.then
  %6 = landingpad { ptr, i32 }
          catch ptr null
  %7 = extractvalue { ptr, i32 } %6, 0
  call void @__clang_call_terminate(ptr %7) #10
  unreachable
}

; Function Attrs: mustprogress nounwind uwtable
define linkonce_odr hidden void @_ZNSt6vectorIN6Assimp7Blender5MFaceESaIS2_EE5clearEv(ptr noundef nonnull align 8 dereferenceable(24) %this) #0 comdat align 2 {
entry:
  %this.addr = alloca ptr, align 8
  store ptr %this, ptr %this.addr, align 8
  %this1 = load ptr, ptr %this.addr, align 8
  %_M_impl = getelementptr inbounds %"struct.std::_Vector_base", ptr %this1, i32 0, i32 0
  %_M_start = getelementptr inbounds %"struct.std::_Vector_base<Assimp::Blender::MFace, std::allocator<Assimp::Blender::MFace>>::_Vector_impl_data", ptr %_M_impl, i32 0, i32 0
  %0 = load ptr, ptr %_M_start, align 8
  call void @_ZNSt6vectorIN6Assimp7Blender5MFaceESaIS2_EE15_M_erase_at_endEPS2_(ptr noundef nonnull align 8 dereferenceable(24) %this1, ptr noundef %0) #11
  ret void
}

; Function Attrs: mustprogress nounwind uwtable
define hidden void @_ZN6Assimp21BlenderBMeshConverter14DestroyTriMeshEv(ptr noundef nonnull align 8 dereferenceable(16) %this) #0 align 2 {
entry:
  %this.addr = alloca ptr, align 8
  store ptr %this, ptr %this.addr, align 8
  %this1 = load ptr, ptr %this.addr, align 8
  %triMesh = getelementptr inbounds %"class.Assimp::BlenderBMeshConverter", ptr %this1, i32 0, i32 1
  %0 = load ptr, ptr %triMesh, align 8
  %isnull = icmp eq ptr %0, null
  br i1 %isnull, label %delete.end, label %delete.notnull

delete.notnull:                                   ; preds = %entry
  %vtable = load ptr, ptr %0, align 8
  %vfn = getelementptr inbounds ptr, ptr %vtable, i64 1
  %1 = load ptr, ptr %vfn, align 8
  call void %1(ptr noundef nonnull align 8 dereferenceable(2528) %0) #11
  br label %delete.end

delete.end:                                       ; preds = %delete.notnull, %entry
  %triMesh2 = getelementptr inbounds %"class.Assimp::BlenderBMeshConverter", ptr %this1, i32 0, i32 1
  store ptr null, ptr %triMesh2, align 8
  ret void
}

; Function Attrs: mustprogress uwtable
define hidden void @_ZN6Assimp21BlenderBMeshConverter14PrepareTriMeshEv(ptr noundef nonnull align 8 dereferenceable(16) %this) #3 align 2 personality ptr @__gxx_personality_v0 {
entry:
  %this.addr = alloca ptr, align 8
  %exn.slot = alloca ptr, align 8
  %ehselector.slot = alloca i32, align 4
  store ptr %this, ptr %this.addr, align 8
  %this1 = load ptr, ptr %this.addr, align 8
  %triMesh = getelementptr inbounds %"class.Assimp::BlenderBMeshConverter", ptr %this1, i32 0, i32 1
  %0 = load ptr, ptr %triMesh, align 8
  %tobool = icmp ne ptr %0, null
  br i1 %tobool, label %if.then, label %if.end

if.then:                                          ; preds = %entry
  call void @_ZN6Assimp21BlenderBMeshConverter14DestroyTriMeshEv(ptr noundef nonnull align 8 dereferenceable(16) %this1)
  br label %if.end

if.end:                                           ; preds = %if.then, %entry
  %call = call noalias noundef nonnull ptr @_Znwm(i64 noundef 2528) #12
  %BMesh = getelementptr inbounds %"class.Assimp::BlenderBMeshConverter", ptr %this1, i32 0, i32 0
  %1 = load ptr, ptr %BMesh, align 8
  invoke void @_ZN6Assimp7Blender4MeshC2ERKS1_(ptr noundef nonnull align 8 dereferenceable(2528) %call, ptr noundef nonnull align 8 dereferenceable(2528) %1)
          to label %invoke.cont unwind label %lpad

invoke.cont:                                      ; preds = %if.end
  %triMesh2 = getelementptr inbounds %"class.Assimp::BlenderBMeshConverter", ptr %this1, i32 0, i32 1
  store ptr %call, ptr %triMesh2, align 8
  %triMesh3 = getelementptr inbounds %"class.Assimp::BlenderBMeshConverter", ptr %this1, i32 0, i32 1
  %2 = load ptr, ptr %triMesh3, align 8
  %totface = getelementptr inbounds %"struct.Assimp::Blender::Mesh", ptr %2, i32 0, i32 2
  store i32 0, ptr %totface, align 8
  %triMesh4 = getelementptr inbounds %"class.Assimp::BlenderBMeshConverter", ptr %this1, i32 0, i32 1
  %3 = load ptr, ptr %triMesh4, align 8
  %mface = getelementptr inbounds %"struct.Assimp::Blender::Mesh", ptr %3, i32 0, i32 11
  call void @_ZNSt6vectorIN6Assimp7Blender5MFaceESaIS2_EE5clearEv(ptr noundef nonnull align 8 dereferenceable(24) %mface) #11
  ret void

lpad:                                             ; preds = %if.end
  %4 = landingpad { ptr, i32 }
          cleanup
  %5 = extractvalue { ptr, i32 } %4, 0
  store ptr %5, ptr %exn.slot, align 8
  %6 = extractvalue { ptr, i32 } %4, 1
  store i32 %6, ptr %ehselector.slot, align 4
  call void @_ZdlPv(ptr noundef %call) #13
  br label %eh.resume

eh.resume:                                        ; preds = %lpad
  %exn = load ptr, ptr %exn.slot, align 8
  %sel = load i32, ptr %ehselector.slot, align 4
  %lpad.val = insertvalue { ptr, i32 } poison, ptr %exn, 0
  %lpad.val5 = insertvalue { ptr, i32 } %lpad.val, i32 %sel, 1
  resume { ptr, i32 } %lpad.val5
}