; Function Attrs: mustprogress uwtable
define hidden void @_ZN6Assimp21BlenderBMeshConverter14PrepareTriMeshEv(ptr nocapture noundef nonnull align 8 dereferenceable(16) %this) local_unnamed_addr #5 align 2 personality ptr @__gxx_personality_v0 {
entry:
  %triMesh = getelementptr inbounds i8, ptr %this, i64 8
  %0 = load ptr, ptr %triMesh, align 8
  %tobool.not = icmp eq ptr %0, null
  br i1 %tobool.not, label %if.end, label %_ZN6Assimp21BlenderBMeshConverter14DestroyTriMeshEv.exit

_ZN6Assimp21BlenderBMeshConverter14DestroyTriMeshEv.exit: ; preds = %entry
  %vtable.i = load ptr, ptr %0, align 8
  %vfn.i = getelementptr inbounds i8, ptr %vtable.i, i64 8
  %1 = load ptr, ptr %vfn.i, align 8
  tail call void %1(ptr noundef nonnull align 8 dereferenceable(2528) %0) #16
  store ptr null, ptr %triMesh, align 8
  br label %if.end

if.end:                                           ; preds = %_ZN6Assimp21BlenderBMeshConverter14DestroyTriMeshEv.exit, %entry
  %call = tail call noalias noundef nonnull dereferenceable(2528) ptr @_Znwm(i64 noundef 2528) #19
  %2 = load ptr, ptr %this, align 8
  invoke void @_ZN6Assimp7Blender4MeshC2ERKS1_(ptr noundef nonnull align 8 dereferenceable(2528) %call, ptr noundef nonnull align 8 dereferenceable(2528) %2)
          to label %invoke.cont unwind label %lpad

invoke.cont:                                      ; preds = %if.end
  store ptr %call, ptr %triMesh, align 8
  %totface = getelementptr inbounds i8, ptr %call, i64 1064
  store i32 0, ptr %totface, align 8
  %mface = getelementptr inbounds i8, ptr %call, i64 1096
  %3 = load ptr, ptr %mface, align 8
  %_M_finish.i.i = getelementptr inbounds i8, ptr %call, i64 1104
  %4 = load ptr, ptr %_M_finish.i.i, align 8
  %tobool.not.i.i = icmp eq ptr %4, %3
  br i1 %tobool.not.i.i, label %_ZNSt6vectorIN6Assimp7Blender5MFaceESaIS2_EE5clearEv.exit, label %for.body.i.i.i.i.i

for.body.i.i.i.i.i:                               ; preds = %invoke.cont, %for.body.i.i.i.i.i
  %__first.addr.04.i.i.i.i.i = phi ptr [ %incdec.ptr.i.i.i.i.i, %for.body.i.i.i.i.i ], [ %3, %invoke.cont ]
  %vtable.i.i.i.i.i.i = load ptr, ptr %__first.addr.04.i.i.i.i.i, align 8
  %5 = load ptr, ptr %vtable.i.i.i.i.i.i, align 8
  tail call void %5(ptr noundef nonnull align 8 dereferenceable(37) %__first.addr.04.i.i.i.i.i) #16
  %incdec.ptr.i.i.i.i.i = getelementptr inbounds i8, ptr %__first.addr.04.i.i.i.i.i, i64 40
  %cmp.not.i.i.i.i.i = icmp eq ptr %incdec.ptr.i.i.i.i.i, %4
  br i1 %cmp.not.i.i.i.i.i, label %invoke.cont.i.i, label %for.body.i.i.i.i.i, !llvm.loop !4

invoke.cont.i.i:                                  ; preds = %for.body.i.i.i.i.i
  store ptr %3, ptr %_M_finish.i.i, align 8
  br label %_ZNSt6vectorIN6Assimp7Blender5MFaceESaIS2_EE5clearEv.exit

_ZNSt6vectorIN6Assimp7Blender5MFaceESaIS2_EE5clearEv.exit: ; preds = %invoke.cont, %invoke.cont.i.i
  ret void

lpad:                                             ; preds = %if.end
  %6 = landingpad { ptr, i32 }
          cleanup
  tail call void @_ZdlPv(ptr noundef nonnull %call) #20
  resume { ptr, i32 } %6
}